; ModuleID = '9/347.c'
source_filename = "9/347.c"
target datalayout = "e-m:e-p270:32:32-p271:32:32-p272:64:64-i64:64-f80:128-n8:16:32:64-S128"
target triple = "x86_64-pc-linux-gnu"

@.str = private unnamed_addr constant [3 x i8] c"%d\00", align 1
@.str.1 = private unnamed_addr constant [5 x i8] c"%s%d\00", align 1
@.str.2 = private unnamed_addr constant [4 x i8] c"%s\0A\00", align 1

; Function Attrs: noinline nounwind uwtable
define dso_local i32 @main() #0 {
  %1 = alloca i32, align 4
  %2 = alloca i32, align 4
  %3 = alloca [100 x i32], align 16
  %4 = alloca i32, align 4
  %5 = alloca [100 x i32], align 16
  %6 = alloca [100 x i32], align 16
  %7 = alloca i32, align 4
  %8 = alloca i32, align 4
  %9 = alloca i32, align 4
  %10 = alloca [100 x [100 x i8]], align 16
  %11 = alloca [100 x [100 x i8]], align 16
  %12 = alloca [100 x [100 x i8]], align 16
  %13 = alloca [100 x i8], align 16
  %14 = alloca i32, align 4
  store i32 0, i32* %1, align 4
  store i32 0, i32* %4, align 4
  store i32 0, i32* %7, align 4
  store i32 0, i32* %8, align 4
  store i32 0, i32* %9, align 4
  %15 = call i32 (i8*, ...) @__isoc99_scanf(i8* getelementptr inbounds ([3 x i8], [3 x i8]* @.str, i64 0, i64 0), i32* %2)
  store i32 0, i32* %4, align 4
  br label %16

16:                                               ; preds = %29, %0
  %17 = load i32, i32* %4, align 4
  %18 = load i32, i32* %2, align 4
  %19 = icmp slt i32 %17, %18
  br i1 %19, label %20, label %32

20:                                               ; preds = %16
  %21 = load i32, i32* %4, align 4
  %22 = sext i32 %21 to i64
  %23 = getelementptr inbounds [100 x [100 x i8]], [100 x [100 x i8]]* %10, i64 0, i64 %22
  %24 = getelementptr inbounds [100 x i8], [100 x i8]* %23, i64 0, i64 0
  %25 = load i32, i32* %4, align 4
  %26 = sext i32 %25 to i64
  %27 = getelementptr inbounds [100 x i32], [100 x i32]* %3, i64 0, i64 %26
  %28 = call i32 (i8*, ...) @__isoc99_scanf(i8* getelementptr inbounds ([5 x i8], [5 x i8]* @.str.1, i64 0, i64 0), i8* %24, i32* %27)
  br label %29

29:                                               ; preds = %20
  %30 = load i32, i32* %4, align 4
  %31 = add nsw i32 %30, 1
  store i32 %31, i32* %4, align 4
  br label %16

32:                                               ; preds = %16
  store i32 0, i32* %4, align 4
  br label %33

33:                                               ; preds = %88, %32
  %34 = load i32, i32* %4, align 4
  %35 = load i32, i32* %2, align 4
  %36 = icmp slt i32 %34, %35
  br i1 %36, label %37, label %91

37:                                               ; preds = %33
  %38 = load i32, i32* %4, align 4
  %39 = sext i32 %38 to i64
  %40 = getelementptr inbounds [100 x i32], [100 x i32]* %3, i64 0, i64 %39
  %41 = load i32, i32* %40, align 4
  %42 = icmp sge i32 %41, 60
  br i1 %42, label %43, label %62

43:                                               ; preds = %37
  %44 = load i32, i32* %4, align 4
  %45 = sext i32 %44 to i64
  %46 = getelementptr inbounds [100 x i32], [100 x i32]* %3, i64 0, i64 %45
  %47 = load i32, i32* %46, align 4
  %48 = load i32, i32* %7, align 4
  %49 = sext i32 %48 to i64
  %50 = getelementptr inbounds [100 x i32], [100 x i32]* %5, i64 0, i64 %49
  store i32 %47, i32* %50, align 4
  %51 = load i32, i32* %7, align 4
  %52 = sext i32 %51 to i64
  %53 = getelementptr inbounds [100 x [100 x i8]], [100 x [100 x i8]]* %11, i64 0, i64 %52
  %54 = getelementptr inbounds [100 x i8], [100 x i8]* %53, i64 0, i64 0
  %55 = load i32, i32* %4, align 4
  %56 = sext i32 %55 to i64
  %57 = getelementptr inbounds [100 x [100 x i8]], [100 x [100 x i8]]* %10, i64 0, i64 %56
  %58 = getelementptr inbounds [100 x i8], [100 x i8]* %57, i64 0, i64 0
  %59 = call i8* @strcpy(i8* %54, i8* %58) #3
  %60 = load i32, i32* %7, align 4
  %61 = add nsw i32 %60, 1
  store i32 %61, i32* %7, align 4
  br label %62

62:                                               ; preds = %43, %37
  %63 = load i32, i32* %4, align 4
  %64 = sext i32 %63 to i64
  %65 = getelementptr inbounds [100 x i32], [100 x i32]* %3, i64 0, i64 %64
  %66 = load i32, i32* %65, align 4
  %67 = icmp slt i32 %66, 60
  br i1 %67, label %68, label %87

68:                                               ; preds = %62
  %69 = load i32, i32* %4, align 4
  %70 = sext i32 %69 to i64
  %71 = getelementptr inbounds [100 x i32], [100 x i32]* %3, i64 0, i64 %70
  %72 = load i32, i32* %71, align 4
  %73 = load i32, i32* %8, align 4
  %74 = sext i32 %73 to i64
  %75 = getelementptr inbounds [100 x i32], [100 x i32]* %6, i64 0, i64 %74
  store i32 %72, i32* %75, align 4
  %76 = load i32, i32* %8, align 4
  %77 = sext i32 %76 to i64
  %78 = getelementptr inbounds [100 x [100 x i8]], [100 x [100 x i8]]* %12, i64 0, i64 %77
  %79 = getelementptr inbounds [100 x i8], [100 x i8]* %78, i64 0, i64 0
  %80 = load i32, i32* %4, align 4
  %81 = sext i32 %80 to i64
  %82 = getelementptr inbounds [100 x [100 x i8]], [100 x [100 x i8]]* %10, i64 0, i64 %81
  %83 = getelementptr inbounds [100 x i8], [100 x i8]* %82, i64 0, i64 0
  %84 = call i8* @strcpy(i8* %79, i8* %83) #3
  %85 = load i32, i32* %8, align 4
  %86 = add nsw i32 %85, 1
  store i32 %86, i32* %8, align 4
  br label %87

87:                                               ; preds = %68, %62
  br label %88

88:                                               ; preds = %87
  %89 = load i32, i32* %4, align 4
  %90 = add nsw i32 %89, 1
  store i32 %90, i32* %4, align 4
  br label %33

91:                                               ; preds = %33
  store i32 1, i32* %4, align 4
  br label %92

92:                                               ; preds = %160, %91
  %93 = load i32, i32* %4, align 4
  %94 = load i32, i32* %7, align 4
  %95 = icmp slt i32 %93, %94
  br i1 %95, label %96, label %163

96:                                               ; preds = %92
  store i32 0, i32* %9, align 4
  br label %97

97:                                               ; preds = %156, %96
  %98 = load i32, i32* %9, align 4
  %99 = load i32, i32* %7, align 4
  %100 = load i32, i32* %4, align 4
  %101 = sub nsw i32 %99, %100
  %102 = icmp slt i32 %98, %101
  br i1 %102, label %103, label %159

103:                                              ; preds = %97
  %104 = load i32, i32* %9, align 4
  %105 = sext i32 %104 to i64
  %106 = getelementptr inbounds [100 x i32], [100 x i32]* %5, i64 0, i64 %105
  %107 = load i32, i32* %106, align 4
  %108 = load i32, i32* %9, align 4
  %109 = add nsw i32 %108, 1
  %110 = sext i32 %109 to i64
  %111 = getelementptr inbounds [100 x i32], [100 x i32]* %5, i64 0, i64 %110
  %112 = load i32, i32* %111, align 4
  %113 = icmp slt i32 %107, %112
  br i1 %113, label %114, label %155

114:                                              ; preds = %103
  %115 = load i32, i32* %9, align 4
  %116 = sext i32 %115 to i64
  %117 = getelementptr inbounds [100 x i32], [100 x i32]* %5, i64 0, i64 %116
  %118 = load i32, i32* %117, align 4
  store i32 %118, i32* %14, align 4
  %119 = load i32, i32* %9, align 4
  %120 = add nsw i32 %119, 1
  %121 = sext i32 %120 to i64
  %122 = getelementptr inbounds [100 x i32], [100 x i32]* %5, i64 0, i64 %121
  %123 = load i32, i32* %122, align 4
  %124 = load i32, i32* %9, align 4
  %125 = sext i32 %124 to i64
  %126 = getelementptr inbounds [100 x i32], [100 x i32]* %5, i64 0, i64 %125
  store i32 %123, i32* %126, align 4
  %127 = load i32, i32* %14, align 4
  %128 = load i32, i32* %9, align 4
  %129 = add nsw i32 %128, 1
  %130 = sext i32 %129 to i64
  %131 = getelementptr inbounds [100 x i32], [100 x i32]* %5, i64 0, i64 %130
  store i32 %127, i32* %131, align 4
  %132 = getelementptr inbounds [100 x i8], [100 x i8]* %13, i64 0, i64 0
  %133 = load i32, i32* %9, align 4
  %134 = sext i32 %133 to i64
  %135 = getelementptr inbounds [100 x [100 x i8]], [100 x [100 x i8]]* %11, i64 0, i64 %134
  %136 = getelementptr inbounds [100 x i8], [100 x i8]* %135, i64 0, i64 0
  %137 = call i8* @strcpy(i8* %132, i8* %136) #3
  %138 = load i32, i32* %9, align 4
  %139 = sext i32 %138 to i64
  %140 = getelementptr inbounds [100 x [100 x i8]], [100 x [100 x i8]]* %11, i64 0, i64 %139
  %141 = getelementptr inbounds [100 x i8], [100 x i8]* %140, i64 0, i64 0
  %142 = load i32, i32* %9, align 4
  %143 = add nsw i32 %142, 1
  %144 = sext i32 %143 to i64
  %145 = getelementptr inbounds [100 x [100 x i8]], [100 x [100 x i8]]* %11, i64 0, i64 %144
  %146 = getelementptr inbounds [100 x i8], [100 x i8]* %145, i64 0, i64 0
  %147 = call i8* @strcpy(i8* %141, i8* %146) #3
  %148 = load i32, i32* %9, align 4
  %149 = add nsw i32 %148, 1
  %150 = sext i32 %149 to i64
  %151 = getelementptr inbounds [100 x [100 x i8]], [100 x [100 x i8]]* %11, i64 0, i64 %150
  %152 = getelementptr inbounds [100 x i8], [100 x i8]* %151, i64 0, i64 0
  %153 = getelementptr inbounds [100 x i8], [100 x i8]* %13, i64 0, i64 0
  %154 = call i8* @strcpy(i8* %152, i8* %153) #3
  br label %155

155:                                              ; preds = %114, %103
  br label %156

156:                                              ; preds = %155
  %157 = load i32, i32* %9, align 4
  %158 = add nsw i32 %157, 1
  store i32 %158, i32* %9, align 4
  br label %97

159:                                              ; preds = %97
  br label %160

160:                                              ; preds = %159
  %161 = load i32, i32* %4, align 4
  %162 = add nsw i32 %161, 1
  store i32 %162, i32* %4, align 4
  br label %92

163:                                              ; preds = %92
  store i32 0, i32* %4, align 4
  br label %164

164:                                              ; preds = %174, %163
  %165 = load i32, i32* %4, align 4
  %166 = load i32, i32* %7, align 4
  %167 = icmp slt i32 %165, %166
  br i1 %167, label %168, label %177

168:                                              ; preds = %164
  %169 = load i32, i32* %4, align 4
  %170 = sext i32 %169 to i64
  %171 = getelementptr inbounds [100 x [100 x i8]], [100 x [100 x i8]]* %11, i64 0, i64 %170
  %172 = getelementptr inbounds [100 x i8], [100 x i8]* %171, i64 0, i64 0
  %173 = call i32 (i8*, ...) @printf(i8* getelementptr inbounds ([4 x i8], [4 x i8]* @.str.2, i64 0, i64 0), i8* %172)
  br label %174

174:                                              ; preds = %168
  %175 = load i32, i32* %4, align 4
  %176 = add nsw i32 %175, 1
  store i32 %176, i32* %4, align 4
  br label %164

177:                                              ; preds = %164
  store i32 0, i32* %9, align 4
  br label %178

178:                                              ; preds = %188, %177
  %179 = load i32, i32* %9, align 4
  %180 = load i32, i32* %8, align 4
  %181 = icmp slt i32 %179, %180
  br i1 %181, label %182, label %191

182:                                              ; preds = %178
  %183 = load i32, i32* %9, align 4
  %184 = sext i32 %183 to i64
  %185 = getelementptr inbounds [100 x [100 x i8]], [100 x [100 x i8]]* %12, i64 0, i64 %184
  %186 = getelementptr inbounds [100 x i8], [100 x i8]* %185, i64 0, i64 0
  %187 = call i32 (i8*, ...) @printf(i8* getelementptr inbounds ([4 x i8], [4 x i8]* @.str.2, i64 0, i64 0), i8* %186)
  br label %188

188:                                              ; preds = %182
  %189 = load i32, i32* %9, align 4
  %190 = add nsw i32 %189, 1
  store i32 %190, i32* %9, align 4
  br label %178

191:                                              ; preds = %178
  ret i32 0
}

declare dso_local i32 @__isoc99_scanf(i8*, ...) #1

; Function Attrs: nounwind
declare dso_local i8* @strcpy(i8*, i8*) #2

declare dso_local i32 @printf(i8*, ...) #1


!llvm.module.flags = !{!0}
!llvm.ident = !{!1}

!0 = !{i32 1, !"wchar_size", i32 4}
!1 = !{!"clang version 10.0.0-4ubuntu1 "}
